; Function Attrs: null_pointer_is_valid sspstrong uwtable
define hidden void @proto_register_xti() local_unnamed_addr #0 {
  %1 = tail call i32 @proto_register_protocol(ptr noundef nonnull @.str.666, ptr noundef nonnull @.str.667, ptr noundef nonnull @.str.668)
  store i32 %1, ptr @proto_xti, align 4
  %2 = tail call ptr @expert_register_protocol(i32 noundef %1)
  tail call void @expert_register_field_array(ptr noundef %2, ptr noundef nonnull @proto_register_xti.ei, i32 noundef 6)
  %3 = load i32, ptr @proto_xti, align 4
  tail call void @proto_register_field_array(i32 noundef %3, ptr noundef nonnull @proto_register_xti.hf, i32 noundef 327)
  tail call void @proto_register_subtree_array(ptr noundef nonnull @proto_register_xti.ett, i32 noundef 33)
  %4 = load i32, ptr @proto_xti, align 4
  %5 = tail call ptr @register_dissector(ptr noundef nonnull @.str.668, ptr noundef nonnull @dissect_xti, i32 noundef %4)
  store ptr %5, ptr @xti_handle, align 8
  ret void
}